target datalayout = "e-m:e-p270:32:32-p271:32:32-p272:64:64-i64:64-i128:128-f80:128-n8:16:32:64-S128"
target triple = "x86_64-pc-linux-gnu"

%struct.QVirtioPCIDevice = type { %struct.QOSGraphObject, %struct.QVirtioDevice, ptr, %struct.QPCIBar, ptr, i16, i64, i32, i32, i32, i32, i32, i32, i32 }
%struct.QOSGraphObject = type { ptr, ptr, ptr, ptr, ptr }
%struct.QVirtioDevice = type { ptr, i16, i64, i8, i8 }
%struct.QPCIBar = type { i64, i8 }

@.str = private unnamed_addr constant [47 x i8] c"../qemu/tests/qtest/libqos/virtio-pci-modern.c\00", align 1
@.str.4 = private unnamed_addr constant [3 x i8] c"!=\00", align 1
@.str.7 = private unnamed_addr constant [31 x i8] c"vector != VIRTIO_MSI_NO_VECTOR\00", align 1
@__func__.set_queue_vector = private unnamed_addr constant [17 x i8] c"set_queue_vector\00", align 1

; Function Attrs: nounwind sspstrong uwtable
define internal void @queue_select(ptr noundef %0, i16 noundef zeroext %1) #0 {
  %3 = alloca ptr, align 8
  %4 = alloca i16, align 2
  %5 = alloca ptr, align 8
  %6 = alloca ptr, align 8
  %7 = alloca ptr, align 8
  store ptr %0, ptr %3, align 8
  store i16 %1, ptr %4, align 2
  call void @llvm.lifetime.start.p0(i64 8, ptr %5) #5
  call void @llvm.lifetime.start.p0(i64 8, ptr %6) #5
  %8 = load ptr, ptr %3, align 8
  store ptr %8, ptr %6, align 8
  %9 = load ptr, ptr %6, align 8
  %10 = getelementptr inbounds i8, ptr %9, i64 -40
  store ptr %10, ptr %7, align 8
  call void @llvm.lifetime.end.p0(i64 8, ptr %6) #5
  %11 = load ptr, ptr %7, align 8
  store ptr %11, ptr %5, align 8
  %12 = load ptr, ptr %5, align 8
  %13 = getelementptr inbounds nuw %struct.QVirtioPCIDevice, ptr %12, i32 0, i32 2
  %14 = load ptr, ptr %13, align 8
  %15 = load ptr, ptr %5, align 8
  %16 = getelementptr inbounds nuw %struct.QVirtioPCIDevice, ptr %15, i32 0, i32 3
  %17 = load ptr, ptr %5, align 8
  %18 = getelementptr inbounds nuw %struct.QVirtioPCIDevice, ptr %17, i32 0, i32 9
  %19 = load i32, ptr %18, align 8
  %20 = zext i32 %19 to i64
  %21 = add i64 %20, 22
  %22 = load i16, ptr %4, align 2
  %23 = getelementptr inbounds nuw { i64, i8 }, ptr %16, i32 0, i32 0
  %24 = load i64, ptr %23, align 8
  %25 = getelementptr inbounds nuw { i64, i8 }, ptr %16, i32 0, i32 1
  %26 = load i8, ptr %25, align 8
  call void @qpci_io_writew(ptr noundef %14, i64 %24, i8 %26, i64 noundef %21, i16 noundef zeroext %22)
  call void @llvm.lifetime.end.p0(i64 8, ptr %5) #5
  ret void
}

; Function Attrs: nounwind sspstrong uwtable
define internal void @set_queue_vector(ptr noundef %0, i16 noundef zeroext %1, i16 noundef zeroext %2) #0 {
  %4 = alloca ptr, align 8
  %5 = alloca i16, align 2
  %6 = alloca i16, align 2
  %7 = alloca i16, align 2
  %8 = alloca i64, align 8
  %9 = alloca i64, align 8
  store ptr %0, ptr %4, align 8
  store i16 %1, ptr %5, align 2
  store i16 %2, ptr %6, align 2
  call void @llvm.lifetime.start.p0(i64 2, ptr %7) #5
  store i16 0, ptr %7, align 2, !annotation !4
  %10 = load ptr, ptr %4, align 8
  %11 = getelementptr inbounds nuw %struct.QVirtioPCIDevice, ptr %10, i32 0, i32 1
  %12 = load i16, ptr %5, align 2
  call void @queue_select(ptr noundef %11, i16 noundef zeroext %12)
  %13 = load ptr, ptr %4, align 8
  %14 = getelementptr inbounds nuw %struct.QVirtioPCIDevice, ptr %13, i32 0, i32 2
  %15 = load ptr, ptr %14, align 8
  %16 = load ptr, ptr %4, align 8
  %17 = getelementptr inbounds nuw %struct.QVirtioPCIDevice, ptr %16, i32 0, i32 3
  %18 = load ptr, ptr %4, align 8
  %19 = getelementptr inbounds nuw %struct.QVirtioPCIDevice, ptr %18, i32 0, i32 9
  %20 = load i32, ptr %19, align 8
  %21 = zext i32 %20 to i64
  %22 = add i64 %21, 26
  %23 = load i16, ptr %6, align 2
  %24 = getelementptr inbounds nuw { i64, i8 }, ptr %17, i32 0, i32 0
  %25 = load i64, ptr %24, align 8
  %26 = getelementptr inbounds nuw { i64, i8 }, ptr %17, i32 0, i32 1
  %27 = load i8, ptr %26, align 8
  call void @qpci_io_writew(ptr noundef %15, i64 %25, i8 %27, i64 noundef %22, i16 noundef zeroext %23)
  %28 = load ptr, ptr %4, align 8
  %29 = getelementptr inbounds nuw %struct.QVirtioPCIDevice, ptr %28, i32 0, i32 2
  %30 = load ptr, ptr %29, align 8
  %31 = load ptr, ptr %4, align 8
  %32 = getelementptr inbounds nuw %struct.QVirtioPCIDevice, ptr %31, i32 0, i32 3
  %33 = load ptr, ptr %4, align 8
  %34 = getelementptr inbounds nuw %struct.QVirtioPCIDevice, ptr %33, i32 0, i32 9
  %35 = load i32, ptr %34, align 8
  %36 = zext i32 %35 to i64
  %37 = add i64 %36, 26
  %38 = getelementptr inbounds nuw { i64, i8 }, ptr %32, i32 0, i32 0
  %39 = load i64, ptr %38, align 8
  %40 = getelementptr inbounds nuw { i64, i8 }, ptr %32, i32 0, i32 1
  %41 = load i8, ptr %40, align 8
  %42 = call zeroext i16 @qpci_io_readw(ptr noundef %30, i64 %39, i8 %41, i64 noundef %37)
  store i16 %42, ptr %7, align 2
  br label %43

43:                                               ; preds = %3
  call void @llvm.lifetime.start.p0(i64 8, ptr %8) #5
  %44 = load i16, ptr %7, align 2
  %45 = zext i16 %44 to i64
  store i64 %45, ptr %8, align 8
  call void @llvm.lifetime.start.p0(i64 8, ptr %9) #5
  store i64 65535, ptr %9, align 8
  %46 = load i64, ptr %8, align 8
  %47 = load i64, ptr %9, align 8
  %48 = icmp ne i64 %46, %47
  br i1 %48, label %49, label %50

49:                                               ; preds = %43
  br label %55

50:                                               ; preds = %43
  %51 = load i64, ptr %8, align 8
  %52 = uitofp i64 %51 to x86_fp80
  %53 = load i64, ptr %9, align 8
  %54 = uitofp i64 %53 to x86_fp80
  call void @g_assertion_message_cmpnum(ptr noundef null, ptr noundef @.str, i32 noundef 302, ptr noundef @__func__.set_queue_vector, ptr noundef @.str.7, x86_fp80 noundef %52, ptr noundef @.str.4, x86_fp80 noundef %54, i8 noundef signext 120)
  br label %55

55:                                               ; preds = %50, %49
  call void @llvm.lifetime.end.p0(i64 8, ptr %9) #5
  call void @llvm.lifetime.end.p0(i64 8, ptr %8) #5
  br label %56

56:                                               ; preds = %55
  br label %57

57:                                               ; preds = %56
  call void @llvm.lifetime.end.p0(i64 2, ptr %7) #5
  ret void
}