; Function Attrs: nounwind sspstrong uwtable
define internal void @set_queue_vector(ptr noundef readonly captures(none) %0, i16 noundef zeroext %1, i16 noundef zeroext %2) #0 {
  %4 = getelementptr inbounds nuw i8, ptr %0, i64 72
  %5 = load ptr, ptr %4, align 8
  %6 = getelementptr inbounds nuw i8, ptr %0, i64 80
  %7 = getelementptr inbounds nuw i8, ptr %0, i64 128
  %8 = load i32, ptr %7, align 8
  %9 = zext i32 %8 to i64
  %10 = add nuw nsw i64 %9, 22
  %11 = load i64, ptr %6, align 8
  %12 = getelementptr inbounds nuw i8, ptr %0, i64 88
  %13 = load i8, ptr %12, align 8
  tail call void @qpci_io_writew(ptr noundef %5, i64 %11, i8 %13, i64 noundef %10, i16 noundef zeroext %1) #3
  %14 = load ptr, ptr %4, align 8
  %15 = load i32, ptr %7, align 8
  %16 = zext i32 %15 to i64
  %17 = add nuw nsw i64 %16, 26
  %18 = load i64, ptr %6, align 8
  %19 = load i8, ptr %12, align 8
  tail call void @qpci_io_writew(ptr noundef %14, i64 %18, i8 %19, i64 noundef %17, i16 noundef zeroext %2) #3
  %20 = load ptr, ptr %4, align 8
  %21 = load i32, ptr %7, align 8
  %22 = zext i32 %21 to i64
  %23 = add nuw nsw i64 %22, 26
  %24 = load i64, ptr %6, align 8
  %25 = load i8, ptr %12, align 8
  %26 = tail call zeroext i16 @qpci_io_readw(ptr noundef %20, i64 %24, i8 %25, i64 noundef %23) #3
  %.not = icmp eq i16 %26, -1
  br i1 %.not, label %27, label %28

27:                                               ; preds = %3
  tail call void @g_assertion_message_cmpnum(ptr noundef null, ptr noundef nonnull @.str, i32 noundef 302, ptr noundef nonnull @__func__.set_queue_vector, ptr noundef nonnull @.str.7, x86_fp80 noundef 0xK400EFFFF000000000000, ptr noundef nonnull @.str.4, x86_fp80 noundef 0xK400EFFFF000000000000, i8 noundef signext 120) #3
  br label %28

28:                                               ; preds = %3, %27
  ret void
}